; Function Attrs: uwtable
define void @_ZTv0_n64_N3nix14LegacySSHStore15queryValidPathsERKSt3setINS_9StorePathESt4lessIS2_ESaIS2_EENS_14SubstituteFlagE(ptr dead_on_unwind noalias writable sret(%"class.std::set.135") align 8 %0, ptr noundef %1, ptr noundef nonnull align 8 dereferenceable(48) %2, i1 noundef zeroext %3) unnamed_addr #4 align 2 personality ptr @__gxx_personality_v0 {
  %5 = alloca %"class.nix::Pool<nix::LegacySSHStore::Connection>::Handle", align 8
  %6 = load ptr, ptr %1, align 8
  %7 = getelementptr inbounds i8, ptr %6, i64 -64
  %8 = load i64, ptr %7, align 8
  %9 = getelementptr inbounds i8, ptr %1, i64 %8
  call void @llvm.lifetime.start.p0(i64 32, ptr nonnull %5)
  %10 = getelementptr inbounds i8, ptr %9, i64 192
  %11 = load ptr, ptr %10, align 8, !noalias !78
  call void @_ZN3nix4PoolINS_14LegacySSHStore10ConnectionEE3getEv(ptr dead_on_unwind nonnull writable sret(%"class.nix::Pool<nix::LegacySSHStore::Connection>::Handle") align 8 %5, ptr noundef nonnull align 8 dereferenceable(192) %11), !noalias !78
  %12 = getelementptr inbounds i8, ptr %5, i64 8
  %13 = load ptr, ptr %12, align 8, !noalias !78
  %14 = load ptr, ptr %9, align 8, !noalias !78
  %15 = getelementptr i8, ptr %14, i64 -48
  %16 = load i64, ptr %15, align 8, !noalias !78
  %17 = getelementptr inbounds i8, ptr %9, i64 %16
  invoke void @_ZN3nix10ServeProto21BasicClientConnection15queryValidPathsERKNS_5StoreEbRKSt3setINS_9StorePathESt4lessIS6_ESaIS6_EENS_14SubstituteFlagE(ptr dead_on_unwind writable sret(%"class.std::set.135") align 8 %0, ptr noundef nonnull align 8 dereferenceable(164) %13, ptr noundef nonnull align 8 dereferenceable(264) %17, i1 noundef zeroext false, ptr noundef nonnull align 8 dereferenceable(48) %2, i1 noundef zeroext %3)
          to label %_ZN3nix14LegacySSHStore15queryValidPathsERKSt3setINS_9StorePathESt4lessIS2_ESaIS2_EENS_14SubstituteFlagE.exit unwind label %18

18:                                               ; preds = %4
  %19 = landingpad { ptr, i32 }
          cleanup
  call void @_ZN3nix4PoolINS_14LegacySSHStore10ConnectionEE6HandleD2Ev(ptr noundef nonnull align 8 dereferenceable(25) %5) #29
  resume { ptr, i32 } %19

_ZN3nix14LegacySSHStore15queryValidPathsERKSt3setINS_9StorePathESt4lessIS2_ESaIS2_EENS_14SubstituteFlagE.exit: ; preds = %4
  call void @_ZN3nix4PoolINS_14LegacySSHStore10ConnectionEE6HandleD2Ev(ptr noundef nonnull align 8 dereferenceable(25) %5) #29
  call void @llvm.lifetime.end.p0(i64 32, ptr nonnull %5)
  ret void
}